target datalayout = "e-m:e-p270:32:32-p271:32:32-p272:64:64-i64:64-i128:128-f80:128-n8:16:32:64-S128"
target triple = "x86_64-pc-linux-gnu"

; Function Attrs: nounwind uwtable
define i32 @_php_stream_getc(ptr noundef %0) #0 {
  %2 = alloca i32, align 4
  %3 = alloca ptr, align 8
  %4 = alloca i8, align 1
  store ptr %0, ptr %3, align 8
  %5 = load ptr, ptr %3, align 8
  %6 = call i64 @_php_stream_read(ptr noundef %5, ptr noundef %4, i64 noundef 1)
  %7 = icmp sgt i64 %6, 0
  br i1 %7, label %8, label %12

8:                                                ; preds = %1
  %9 = load i8, ptr %4, align 1
  %10 = sext i8 %9 to i32
  %11 = and i32 %10, 255
  store i32 %11, ptr %2, align 4
  br label %13

12:                                               ; preds = %1
  store i32 -1, ptr %2, align 4
  br label %13

13:                                               ; preds = %12, %8
  %14 = load i32, ptr %2, align 4
  ret i32 %14
}