; Function Attrs: nounwind uwtable
define i32 @_php_stream_getc(ptr noundef %0) local_unnamed_addr #2 {
  %2 = alloca i8, align 1
  %3 = call i64 @_php_stream_read(ptr noundef %0, ptr noundef nonnull %2, i64 noundef 1)
  %4 = icmp sgt i64 %3, 0
  %5 = load i8, ptr %2, align 1
  %6 = zext i8 %5 to i32
  %.0 = select i1 %4, i32 %6, i32 -1
  ret i32 %.0
}